target datalayout = "e-m:e-p270:32:32-p271:32:32-p272:64:64-i64:64-i128:128-f80:128-n8:16:32:64-S128"
target triple = "x86_64-pc-linux-gnu"

%union.SourceSpan = type { i64 }
%struct.Signature_ = type <{ %struct.CalleeAttributes, i16, i8, i32, i32, [4 x i8], ptr }>
%struct.CalleeAttributes = type { i8 }
%struct.Decl_ = type { ptr, ptr, %union.SourceSpan, i64, %union.anon, i32, %union.anon.0, i64, ptr, ptr, ptr, %union.anon.1 }
%union.anon = type { ptr }
%union.anon.0 = type { i16 }
%union.anon.1 = type { %struct.FuncDecl }
%struct.FuncDecl = type { i32, [4 x i8], %struct.Signature_, i32, i32, %union.anon.8 }
%union.anon.8 = type { %struct.anon.9 }
%struct.anon.9 = type { i16, %union.anon.10 }
%union.anon.10 = type { ptr }
%struct.Type_ = type { i32, ptr, ptr, ptr, %union.anon.85, ptr, ptr, %union.anon.87 }
%union.anon.85 = type { ptr }
%union.anon.87 = type { %struct.TypeFunction }
%struct.TypeFunction = type { ptr, ptr, ptr }

@.str.180 = private unnamed_addr constant [38 x i8] c"The fist parameter must be of type %s\00", align 1
@.str.181 = private unnamed_addr constant [43 x i8] c"The first parameter must have the type %s.\00", align 1
@.str.182 = private unnamed_addr constant [46 x i8] c"The first parameter must be of type %s or %s.\00", align 1

; Function Attrs: nounwind uwtable
define internal zeroext i1 @sema_is_valid_method_param(ptr noundef %0, ptr noundef %1, ptr noundef %2, i1 noundef zeroext %3) #0 {
  %5 = alloca i1, align 1
  %6 = alloca ptr, align 8
  %7 = alloca i1, align 1
  %8 = alloca ptr, align 8
  %9 = alloca ptr, align 8
  %10 = alloca ptr, align 8
  %11 = alloca i8, align 1
  %12 = alloca ptr, align 8
  store ptr %0, ptr %8, align 8
  store ptr %1, ptr %9, align 8
  store ptr %2, ptr %10, align 8
  %13 = zext i1 %3 to i8
  store i8 %13, ptr %11, align 1
  %14 = load ptr, ptr %9, align 8
  %15 = getelementptr inbounds %struct.Decl_, ptr %14, i32 0, i32 10
  %16 = load ptr, ptr %15, align 8
  store ptr %16, ptr %12, align 8
  %17 = load ptr, ptr %12, align 8
  %18 = icmp ne ptr %17, null
  br i1 %18, label %20, label %19

19:                                               ; preds = %4
  br label %67

20:                                               ; preds = %4
  %21 = load ptr, ptr %12, align 8
  %22 = getelementptr inbounds %struct.Type_, ptr %21, i32 0, i32 1
  %23 = load ptr, ptr %22, align 8
  store ptr %23, ptr %12, align 8
  %24 = load i8, ptr %11, align 1
  %25 = trunc i8 %24 to i1
  br i1 %25, label %26, label %48

26:                                               ; preds = %20
  %27 = load ptr, ptr %12, align 8
  %28 = getelementptr inbounds %struct.Type_, ptr %27, i32 0, i32 0
  %29 = load i32, ptr %28, align 8
  %30 = icmp ne i32 %29, 23
  br i1 %30, label %37, label %31

31:                                               ; preds = %26
  %32 = load ptr, ptr %12, align 8
  %33 = getelementptr inbounds %struct.Type_, ptr %32, i32 0, i32 7
  %34 = load ptr, ptr %33, align 8
  %35 = load ptr, ptr %10, align 8
  %36 = icmp ne ptr %34, %35
  br i1 %36, label %37, label %47

37:                                               ; preds = %31, %26
  br label %38

38:                                               ; preds = %37
  %39 = load ptr, ptr %9, align 8
  %40 = getelementptr inbounds %struct.Decl_, ptr %39, i32 0, i32 2
  %41 = load ptr, ptr %10, align 8
  %42 = call ptr @type_get_ptr(ptr noundef %41)
  %43 = call ptr @type_quoted_error_string(ptr noundef %42)
  %44 = getelementptr inbounds %union.SourceSpan, ptr %40, i32 0, i32 0
  %45 = load i64, ptr %44, align 8
  call void (i64, ptr, ...) @sema_error_at(i64 %45, ptr noundef @.str.180, ptr noundef %43)
  store i1 false, ptr %7, align 1
  br label %96

46:                                               ; No predecessors!
  br label %47

47:                                               ; preds = %46, %31
  store i1 true, ptr %7, align 1
  br label %96

48:                                               ; preds = %20
  %49 = load ptr, ptr %12, align 8
  %50 = load ptr, ptr %10, align 8
  %51 = icmp eq ptr %49, %50
  br i1 %51, label %52, label %53

52:                                               ; preds = %48
  store i1 true, ptr %7, align 1
  br label %96

53:                                               ; preds = %48
  %54 = load ptr, ptr %12, align 8
  %55 = getelementptr inbounds %struct.Type_, ptr %54, i32 0, i32 0
  %56 = load i32, ptr %55, align 8
  switch i32 %56, label %65 [
    i32 19, label %57
    i32 20, label %57
    i32 23, label %57
  ]

57:                                               ; preds = %53, %53, %53
  %58 = load ptr, ptr %12, align 8
  %59 = getelementptr inbounds %struct.Type_, ptr %58, i32 0, i32 7
  %60 = load ptr, ptr %59, align 8
  %61 = load ptr, ptr %10, align 8
  %62 = icmp eq ptr %60, %61
  br i1 %62, label %63, label %64

63:                                               ; preds = %57
  store i1 true, ptr %7, align 1
  br label %96

64:                                               ; preds = %57
  br label %66

65:                                               ; preds = %53
  br label %66

66:                                               ; preds = %65, %64
  br label %67

67:                                               ; preds = %66, %19
  %68 = load ptr, ptr %10, align 8
  store ptr %68, ptr %6, align 8
  %69 = load ptr, ptr %6, align 8
  %70 = load i32, ptr %69, align 8
  switch i32 %70, label %72 [
    i32 18, label %71
    i32 28, label %71
  ]

71:                                               ; preds = %67, %67
  store i1 true, ptr %5, align 1
  br label %73

72:                                               ; preds = %67
  store i1 false, ptr %5, align 1
  br label %73

73:                                               ; preds = %72, %71
  %74 = load i1, ptr %5, align 1
  br i1 %74, label %75, label %85

75:                                               ; preds = %73
  br label %76

76:                                               ; preds = %75
  %77 = load ptr, ptr %9, align 8
  %78 = getelementptr inbounds %struct.Decl_, ptr %77, i32 0, i32 2
  %79 = load ptr, ptr %10, align 8
  %80 = call ptr @type_get_ptr(ptr noundef %79)
  %81 = call ptr @type_quoted_error_string(ptr noundef %80)
  %82 = getelementptr inbounds %union.SourceSpan, ptr %78, i32 0, i32 0
  %83 = load i64, ptr %82, align 8
  call void (i64, ptr, ...) @sema_error_at(i64 %83, ptr noundef @.str.181, ptr noundef %81)
  store i1 false, ptr %7, align 1
  br label %96

84:                                               ; No predecessors!
  br label %85

85:                                               ; preds = %84, %73
  br label %86

86:                                               ; preds = %85
  %87 = load ptr, ptr %9, align 8
  %88 = getelementptr inbounds %struct.Decl_, ptr %87, i32 0, i32 2
  %89 = load ptr, ptr %10, align 8
  %90 = call ptr @type_quoted_error_string(ptr noundef %89)
  %91 = load ptr, ptr %10, align 8
  %92 = call ptr @type_get_ptr(ptr noundef %91)
  %93 = call ptr @type_quoted_error_string(ptr noundef %92)
  %94 = getelementptr inbounds %union.SourceSpan, ptr %88, i32 0, i32 0
  %95 = load i64, ptr %94, align 8
  call void (i64, ptr, ...) @sema_error_at(i64 %95, ptr noundef @.str.182, ptr noundef %90, ptr noundef %93)
  store i1 false, ptr %7, align 1
  br label %96

96:                                               ; preds = %86, %76, %63, %52, %47, %38
  %97 = load i1, ptr %7, align 1
  ret i1 %97
}