; Function Attrs: nounwind uwtable
define internal fastcc noundef zeroext i1 @sema_is_valid_method_param(ptr nocapture noundef readonly %0, ptr noundef %1, i1 noundef zeroext %2) unnamed_addr #0 {
  %4 = getelementptr inbounds i8, ptr %0, i64 72
  %5 = load ptr, ptr %4, align 8
  %.not = icmp eq ptr %5, null
  br i1 %.not, label %switch.early.test, label %6

6:                                                ; preds = %3
  %7 = getelementptr inbounds i8, ptr %5, i64 8
  %8 = load ptr, ptr %7, align 8
  br i1 %2, label %9, label %19

9:                                                ; preds = %6
  %10 = load i32, ptr %8, align 8
  %.not26 = icmp eq i32 %10, 23
  br i1 %.not26, label %11, label %14

11:                                               ; preds = %9
  %12 = getelementptr inbounds i8, ptr %8, i64 56
  %13 = load ptr, ptr %12, align 8
  %.not27 = icmp eq ptr %13, %1
  br i1 %.not27, label %39, label %14

14:                                               ; preds = %9, %11
  %15 = getelementptr inbounds i8, ptr %0, i64 16
  %16 = tail call ptr @type_get_ptr(ptr noundef %1) #10
  %17 = tail call ptr @type_quoted_error_string(ptr noundef %16) #10
  %18 = load i64, ptr %15, align 8
  tail call void (i64, ptr, ...) @sema_error_at(i64 %18, ptr noundef nonnull @.str.180, ptr noundef %17) #10
  br label %39

19:                                               ; preds = %6
  %20 = icmp eq ptr %8, %1
  br i1 %20, label %39, label %21

21:                                               ; preds = %19
  %22 = load i32, ptr %8, align 8
  switch i32 %22, label %switch.early.test [
    i32 19, label %23
    i32 20, label %23
    i32 23, label %23
  ]

23:                                               ; preds = %21, %21, %21
  %24 = getelementptr inbounds i8, ptr %8, i64 56
  %25 = load ptr, ptr %24, align 8
  %26 = icmp eq ptr %25, %1
  br i1 %26, label %39, label %switch.early.test

switch.early.test:                                ; preds = %23, %21, %3
  %27 = load i32, ptr %1, align 8
  switch i32 %27, label %33 [
    i32 28, label %28
    i32 18, label %28
  ]

28:                                               ; preds = %switch.early.test, %switch.early.test
  %29 = getelementptr inbounds i8, ptr %0, i64 16
  %30 = tail call ptr @type_get_ptr(ptr noundef nonnull %1) #10
  %31 = tail call ptr @type_quoted_error_string(ptr noundef %30) #10
  %32 = load i64, ptr %29, align 8
  tail call void (i64, ptr, ...) @sema_error_at(i64 %32, ptr noundef nonnull @.str.181, ptr noundef %31) #10
  br label %39

33:                                               ; preds = %switch.early.test
  %34 = getelementptr inbounds i8, ptr %0, i64 16
  %35 = tail call ptr @type_quoted_error_string(ptr noundef nonnull %1) #10
  %36 = tail call ptr @type_get_ptr(ptr noundef nonnull %1) #10
  %37 = tail call ptr @type_quoted_error_string(ptr noundef %36) #10
  %38 = load i64, ptr %34, align 8
  tail call void (i64, ptr, ...) @sema_error_at(i64 %38, ptr noundef nonnull @.str.182, ptr noundef %35, ptr noundef %37) #10
  br label %39

39:                                               ; preds = %23, %19, %11, %33, %28, %14
  %.022 = phi i1 [ false, %14 ], [ false, %28 ], [ false, %33 ], [ true, %11 ], [ true, %19 ], [ true, %23 ]
  ret i1 %.022
}